(lp1
S'/home/dapanarx/davep/dp-world/bin'
p2
aS'/home/dapanarx/work/ftci/poc/pyagents'
p3
aS'/home/dapanarx/tmp'
p4
aS'/home/dapanarx/work/ftci/poc/pyagents'
p5
aS'/home/dapanarx/work/ftci/poc/client/,,exp'
p6
aS'/home/dapanarx/work/ftci/poc/pyagents'
p7
a.